; Function Attrs: nounwind uwtable
define hidden ptr @timelib_get_tz_abbr_ptr(ptr noundef %0) local_unnamed_addr #1 {
  %2 = getelementptr inbounds i8, ptr %0, i64 220
  %3 = load i32, ptr %2, align 4
  %.not = icmp eq i32 %3, 0
  br i1 %.not, label %4, label %5

4:                                                ; preds = %1
  tail call void @timelib_update_ts(ptr noundef nonnull %0, ptr noundef null) #18
  br label %5

5:                                                ; preds = %4, %1
  %6 = getelementptr inbounds i8, ptr %0, i64 64
  %7 = load ptr, ptr %6, align 8
  ret ptr %7
}